(lp0
(lp1
S'Batman'
p2
aI32
aI13
aI17
aa(lp3
S'Superman'
p4
aI-32
aI2
aI13
aa(lp5
S'Iron Man'
p6
aI4
aI1
aI1
aa(lp7
S'Flash'
p8
aI-3
aI1
aI3
aa(lp9
S'Chirgut'
p10
aI-1
aI1
aI2
aa(lp11
S'Muktaka'
p12
aI-5
aI0
aI1
aa(lp13
S'Mehul'
p14
aI5
aI1
aI1
aa.